; ModuleID = '58/1242.c'
source_filename = "58/1242.c"
target datalayout = "e-m:e-p270:32:32-p271:32:32-p272:64:64-i64:64-f80:128-n8:16:32:64-S128"
target triple = "x86_64-pc-linux-gnu"

@.str = private unnamed_addr constant [3 x i8] c"%d\00", align 1
@.str.1 = private unnamed_addr constant [4 x i8] c"%d\0A\00", align 1

; Function Attrs: noinline nounwind uwtable
define dso_local i32 @main() #0 {
  %1 = alloca i32, align 4
  %2 = alloca [100 x i8], align 16
  %3 = alloca i32, align 4
  %4 = alloca i32, align 4
  %5 = alloca i32, align 4
  %6 = alloca i32, align 4
  %7 = alloca i8*, align 8
  store i32 0, i32* %1, align 4
  store i32 1, i32* %5, align 4
  %8 = call i32 (i8*, ...) @__isoc99_scanf(i8* getelementptr inbounds ([3 x i8], [3 x i8]* @.str, i64 0, i64 0), i32* %4)
  store i32 0, i32* %3, align 4
  br label %9

9:                                                ; preds = %102, %0
  %10 = load i32, i32* %3, align 4
  %11 = load i32, i32* %4, align 4
  %12 = add nsw i32 %11, 1
  %13 = icmp slt i32 %10, %12
  br i1 %13, label %14, label %105

14:                                               ; preds = %9
  %15 = getelementptr inbounds [100 x i8], [100 x i8]* %2, i64 0, i64 0
  %16 = call i32 (i8*, ...) bitcast (i32 (...)* @gets to i32 (i8*, ...)*)(i8* %15)
  %17 = getelementptr inbounds [100 x i8], [100 x i8]* %2, i64 0, i64 0
  store i8* %17, i8** %7, align 8
  %18 = load i8*, i8** %7, align 8
  %19 = load i8, i8* %18, align 1
  %20 = sext i8 %19 to i32
  %21 = icmp eq i32 %20, 95
  br i1 %21, label %43, label %22

22:                                               ; preds = %14
  %23 = load i8*, i8** %7, align 8
  %24 = load i8, i8* %23, align 1
  %25 = sext i8 %24 to i32
  %26 = icmp sgt i32 %25, 64
  br i1 %26, label %27, label %32

27:                                               ; preds = %22
  %28 = load i8*, i8** %7, align 8
  %29 = load i8, i8* %28, align 1
  %30 = sext i8 %29 to i32
  %31 = icmp slt i32 %30, 91
  br i1 %31, label %43, label %32

32:                                               ; preds = %27, %22
  %33 = load i8*, i8** %7, align 8
  %34 = load i8, i8* %33, align 1
  %35 = sext i8 %34 to i32
  %36 = icmp sgt i32 %35, 96
  br i1 %36, label %37, label %42

37:                                               ; preds = %32
  %38 = load i8*, i8** %7, align 8
  %39 = load i8, i8* %38, align 1
  %40 = sext i8 %39 to i32
  %41 = icmp slt i32 %40, 123
  br i1 %41, label %43, label %42

42:                                               ; preds = %37, %32
  store i32 0, i32* %5, align 4
  br label %43

43:                                               ; preds = %42, %37, %27, %14
  %44 = getelementptr inbounds [100 x i8], [100 x i8]* %2, i64 0, i64 0
  %45 = call i64 @strlen(i8* %44) #3
  %46 = trunc i64 %45 to i32
  store i32 %46, i32* %6, align 4
  %47 = getelementptr inbounds [100 x i8], [100 x i8]* %2, i64 0, i64 0
  store i8* %47, i8** %7, align 8
  br label %48

48:                                               ; preds = %92, %43
  %49 = load i8*, i8** %7, align 8
  %50 = getelementptr inbounds [100 x i8], [100 x i8]* %2, i64 0, i64 0
  %51 = load i32, i32* %6, align 4
  %52 = sext i32 %51 to i64
  %53 = getelementptr inbounds i8, i8* %50, i64 %52
  %54 = icmp ult i8* %49, %53
  br i1 %54, label %55, label %95

55:                                               ; preds = %48
  %56 = load i8*, i8** %7, align 8
  %57 = load i8, i8* %56, align 1
  %58 = sext i8 %57 to i32
  %59 = icmp eq i32 %58, 95
  br i1 %59, label %91, label %60

60:                                               ; preds = %55
  %61 = load i8*, i8** %7, align 8
  %62 = load i8, i8* %61, align 1
  %63 = sext i8 %62 to i32
  %64 = icmp sgt i32 %63, 64
  br i1 %64, label %65, label %70

65:                                               ; preds = %60
  %66 = load i8*, i8** %7, align 8
  %67 = load i8, i8* %66, align 1
  %68 = sext i8 %67 to i32
  %69 = icmp slt i32 %68, 91
  br i1 %69, label %91, label %70

70:                                               ; preds = %65, %60
  %71 = load i8*, i8** %7, align 8
  %72 = load i8, i8* %71, align 1
  %73 = sext i8 %72 to i32
  %74 = icmp sgt i32 %73, 96
  br i1 %74, label %75, label %80

75:                                               ; preds = %70
  %76 = load i8*, i8** %7, align 8
  %77 = load i8, i8* %76, align 1
  %78 = sext i8 %77 to i32
  %79 = icmp slt i32 %78, 123
  br i1 %79, label %91, label %80

80:                                               ; preds = %75, %70
  %81 = load i8*, i8** %7, align 8
  %82 = load i8, i8* %81, align 1
  %83 = sext i8 %82 to i32
  %84 = icmp sgt i32 %83, 47
  br i1 %84, label %85, label %90

85:                                               ; preds = %80
  %86 = load i8*, i8** %7, align 8
  %87 = load i8, i8* %86, align 1
  %88 = sext i8 %87 to i32
  %89 = icmp slt i32 %88, 58
  br i1 %89, label %91, label %90

90:                                               ; preds = %85, %80
  store i32 0, i32* %5, align 4
  br label %95

91:                                               ; preds = %85, %75, %65, %55
  br label %92

92:                                               ; preds = %91
  %93 = load i8*, i8** %7, align 8
  %94 = getelementptr inbounds i8, i8* %93, i32 1
  store i8* %94, i8** %7, align 8
  br label %48

95:                                               ; preds = %90, %48
  %96 = load i32, i32* %3, align 4
  %97 = icmp sgt i32 %96, 0
  br i1 %97, label %98, label %101

98:                                               ; preds = %95
  %99 = load i32, i32* %5, align 4
  %100 = call i32 (i8*, ...) @printf(i8* getelementptr inbounds ([4 x i8], [4 x i8]* @.str.1, i64 0, i64 0), i32 %99)
  br label %101

101:                                              ; preds = %98, %95
  store i32 1, i32* %5, align 4
  br label %102

102:                                              ; preds = %101
  %103 = load i32, i32* %3, align 4
  %104 = add nsw i32 %103, 1
  store i32 %104, i32* %3, align 4
  br label %9

105:                                              ; preds = %9
  ret i32 0
}

declare dso_local i32 @__isoc99_scanf(i8*, ...) #1

declare dso_local i32 @gets(...) #1

; Function Attrs: nounwind readonly
declare dso_local i64 @strlen(i8*) #2

declare dso_local i32 @printf(i8*, ...) #1


!llvm.module.flags = !{!0}
!llvm.ident = !{!1}

!0 = !{i32 1, !"wchar_size", i32 4}
!1 = !{!"clang version 10.0.0-4ubuntu1 "}
