; ModuleID = 'source-C-CXX/57/1242.c'
source_filename = "source-C-CXX/57/1242.c"
target datalayout = "e-m:e-p270:32:32-p271:32:32-p272:64:64-i64:64-f80:128-n8:16:32:64-S128"
target triple = "x86_64-pc-linux-gnu"

@.str = private unnamed_addr constant [3 x i8] c"%d\00", align 1
@.str.1 = private unnamed_addr constant [4 x i8] c"%d\0A\00", align 1

; Function Attrs: nounwind sspstrong uwtable
define dso_local i32 @main() local_unnamed_addr #0 {
  %1 = alloca [100 x i8], align 16
  %2 = alloca i32, align 4
  %3 = getelementptr inbounds [100 x i8], [100 x i8]* %1, i64 0, i64 0
  call void @llvm.lifetime.start.p0i8(i64 100, i8* nonnull %3) #5
  %4 = bitcast i32* %2 to i8*
  call void @llvm.lifetime.start.p0i8(i64 4, i8* nonnull %4) #5
  %5 = call i32 (i8*, ...) @__isoc99_scanf(i8* getelementptr inbounds ([3 x i8], [3 x i8]* @.str, i64 0, i64 0), i32* nonnull %2)
  %6 = load i32, i32* %2, align 4, !tbaa !5
  %7 = icmp slt i32 %6, 0
  br i1 %7, label %57, label %8

8:                                                ; preds = %0
  %9 = getelementptr inbounds [100 x i8], [100 x i8]* %1, i64 0, i64 1
  br label %10

10:                                               ; preds = %8, %53
  %11 = phi i32 [ %54, %53 ], [ 0, %8 ]
  %12 = call i32 (i8*, ...) bitcast (i32 (...)* @gets to i32 (i8*, ...)*)(i8* nonnull %3) #5
  %13 = load i8, i8* %3, align 16, !tbaa !9
  %14 = icmp eq i8 %13, 95
  %15 = and i8 %13, -33
  %16 = add i8 %15, -65
  %17 = icmp ult i8 %16, 26
  %18 = or i1 %17, %14
  %19 = call i64 @strlen(i8* noundef nonnull %3) #6
  %20 = shl i64 %19, 32
  %21 = ashr exact i64 %20, 32
  %22 = getelementptr inbounds [100 x i8], [100 x i8]* %1, i64 0, i64 %21
  %23 = icmp sgt i64 %20, 0
  br i1 %23, label %24, label %47

24:                                               ; preds = %10
  %25 = icmp eq i8 %13, 95
  %26 = and i8 %13, -33
  %27 = add i8 %26, -65
  %28 = icmp ult i8 %27, 26
  %29 = or i1 %28, %25
  %30 = add i8 %13, -48
  %31 = icmp ult i8 %30, 10
  %32 = or i1 %29, %31
  br i1 %32, label %33, label %47

33:                                               ; preds = %24, %36
  %34 = phi i8* [ %46, %36 ], [ %9, %24 ]
  %35 = icmp ult i8* %34, %22
  br i1 %35, label %36, label %47, !llvm.loop !10

36:                                               ; preds = %33
  %37 = load i8, i8* %34, align 1, !tbaa !9
  %38 = icmp eq i8 %37, 95
  %39 = and i8 %37, -33
  %40 = add i8 %39, -65
  %41 = icmp ult i8 %40, 26
  %42 = or i1 %41, %38
  %43 = add i8 %37, -48
  %44 = icmp ult i8 %43, 10
  %45 = or i1 %42, %44
  %46 = getelementptr inbounds i8, i8* %34, i64 1
  br i1 %45, label %33, label %47

47:                                               ; preds = %36, %33, %24, %10
  %48 = phi i1 [ %18, %10 ], [ false, %24 ], [ %18, %33 ], [ false, %36 ]
  %49 = icmp eq i32 %11, 0
  br i1 %49, label %53, label %50

50:                                               ; preds = %47
  %51 = zext i1 %48 to i32
  %52 = call i32 (i8*, ...) @printf(i8* nonnull dereferenceable(1) getelementptr inbounds ([4 x i8], [4 x i8]* @.str.1, i64 0, i64 0), i32 %51)
  br label %53

53:                                               ; preds = %50, %47
  %54 = add nuw nsw i32 %11, 1
  %55 = load i32, i32* %2, align 4, !tbaa !5
  %56 = icmp slt i32 %11, %55
  br i1 %56, label %10, label %57, !llvm.loop !12

57:                                               ; preds = %53, %0
  call void @llvm.lifetime.end.p0i8(i64 4, i8* nonnull %4) #5
  call void @llvm.lifetime.end.p0i8(i64 100, i8* nonnull %3) #5
  ret i32 0
}

; Function Attrs: argmemonly mustprogress nofree nosync nounwind willreturn
declare void @llvm.lifetime.start.p0i8(i64 immarg, i8* nocapture) #1

; Function Attrs: nofree nounwind
declare noundef i32 @__isoc99_scanf(i8* nocapture noundef readonly, ...) local_unnamed_addr #2

declare i32 @gets(...) local_unnamed_addr #3

; Function Attrs: argmemonly mustprogress nofree nounwind readonly willreturn
declare i64 @strlen(i8* nocapture) local_unnamed_addr #4

; Function Attrs: nofree nounwind
declare noundef i32 @printf(i8* nocapture noundef readonly, ...) local_unnamed_addr #2

; Function Attrs: argmemonly mustprogress nofree nosync nounwind willreturn
declare void @llvm.lifetime.end.p0i8(i64 immarg, i8* nocapture) #1


!llvm.module.flags = !{!0, !1, !2, !3}
!llvm.ident = !{!4}

!0 = !{i32 1, !"wchar_size", i32 4}
!1 = !{i32 7, !"PIC Level", i32 2}
!2 = !{i32 7, !"PIE Level", i32 2}
!3 = !{i32 7, !"uwtable", i32 1}
!4 = !{!"clang version 13.0.0"}
!5 = !{!6, !6, i64 0}
!6 = !{!"int", !7, i64 0}
!7 = !{!"omnipotent char", !8, i64 0}
!8 = !{!"Simple C/C++ TBAA"}
!9 = !{!7, !7, i64 0}
!10 = distinct !{!10, !11}
!11 = !{!"llvm.loop.mustprogress"}
!12 = distinct !{!12, !11}
